; Function Attrs: mustprogress nounwind uwtable
define void @_ZN19OpenColorIO_v2_5dev7Context13addStringVarsERKSt10shared_ptrIKS0_E(ptr noundef nonnull readonly align 8 captures(none) dereferenceable(8) %0, ptr noundef nonnull readonly align 8 captures(none) dereferenceable(16) %1) local_unnamed_addr #6 align 2 personality ptr @__gxx_personality_v0 {
  %3 = load ptr, ptr %1, align 8, !tbaa !106
  %4 = load ptr, ptr %3, align 8, !tbaa !61
  %5 = getelementptr inbounds nuw i8, ptr %4, i64 120
  %6 = load ptr, ptr %5, align 8, !tbaa !58
  %7 = getelementptr inbounds nuw i8, ptr %4, i64 104
  %.not9 = icmp eq ptr %6, %7
  br i1 %.not9, label %._crit_edge, label %.lr.ph

._crit_edge:                                      ; preds = %.lr.ph, %2
  ret void

.lr.ph:                                           ; preds = %2, %.lr.ph
  %.sroa.06.010 = phi ptr [ %12, %.lr.ph ], [ %6, %2 ]
  %8 = getelementptr inbounds nuw i8, ptr %.sroa.06.010, i64 32
  %9 = load ptr, ptr %8, align 8, !tbaa !66
  %10 = getelementptr inbounds nuw i8, ptr %.sroa.06.010, i64 64
  %11 = load ptr, ptr %10, align 8, !tbaa !66
  tail call void @_ZN19OpenColorIO_v2_5dev7Context12setStringVarEPKcS2_(ptr noundef nonnull align 8 dereferenceable(8) %0, ptr noundef %9, ptr noundef %11) #27
  %12 = tail call noundef ptr @_ZSt18_Rb_tree_incrementPKSt18_Rb_tree_node_base(ptr noundef %.sroa.06.010) #31
  %.not = icmp eq ptr %12, %7
  br i1 %.not, label %._crit_edge, label %.lr.ph
}